target datalayout = "e-m:e-p270:32:32-p271:32:32-p272:64:64-i64:64-i128:128-f80:128-n8:16:32:64-S128"
target triple = "x86_64-pc-linux-gnu"

%"class.rocksdb::Cleanable" = type { %"struct.rocksdb::Cleanable::Cleanup" }
%"struct.rocksdb::Cleanable::Cleanup" = type { ptr, ptr, ptr, ptr }
%"class.rocksdb::SharedCleanablePtr" = type { ptr }
%"struct.rocksdb::SharedCleanablePtr::Impl" = type <{ %"class.rocksdb::Cleanable", %"struct.std::atomic", [4 x i8] }>
%"struct.std::atomic" = type { %"struct.std::__atomic_base" }
%"struct.std::__atomic_base" = type { i32 }

; Function Attrs: alwaysinline mustprogress nounwind uwtable
define linkonce_odr noundef i32 @_ZNSt13__atomic_baseIjE9fetch_addEjSt12memory_order(ptr noundef nonnull align 4 dereferenceable(4) %0, i32 noundef %1, i32 noundef %2) #10 comdat align 2 {
  %4 = alloca ptr, align 8
  %5 = alloca i32, align 4
  %6 = alloca i32, align 4
  %7 = alloca i32, align 4
  %8 = alloca i32, align 4
  store ptr %0, ptr %4, align 8, !tbaa !32
  store i32 %1, ptr %5, align 4, !tbaa !34
  store i32 %2, ptr %6, align 4, !tbaa !36
  %9 = load ptr, ptr %4, align 8
  %10 = getelementptr inbounds nuw %"struct.std::__atomic_base", ptr %9, i32 0, i32 0
  %11 = load i32, ptr %6, align 4, !tbaa !36
  %12 = load i32, ptr %5, align 4, !tbaa !34
  store i32 %12, ptr %7, align 4, !tbaa !34
  switch i32 %11, label %13 [
    i32 1, label %16
    i32 2, label %16
    i32 3, label %19
    i32 4, label %22
    i32 5, label %25
  ]

13:                                               ; preds = %3
  %14 = load i32, ptr %7, align 4
  %15 = atomicrmw add ptr %10, i32 %14 monotonic, align 4
  store i32 %15, ptr %8, align 4
  br label %28

16:                                               ; preds = %3, %3
  %17 = load i32, ptr %7, align 4
  %18 = atomicrmw add ptr %10, i32 %17 acquire, align 4
  store i32 %18, ptr %8, align 4
  br label %28

19:                                               ; preds = %3
  %20 = load i32, ptr %7, align 4
  %21 = atomicrmw add ptr %10, i32 %20 release, align 4
  store i32 %21, ptr %8, align 4
  br label %28

22:                                               ; preds = %3
  %23 = load i32, ptr %7, align 4
  %24 = atomicrmw add ptr %10, i32 %23 acq_rel, align 4
  store i32 %24, ptr %8, align 4
  br label %28

25:                                               ; preds = %3
  %26 = load i32, ptr %7, align 4
  %27 = atomicrmw add ptr %10, i32 %26 seq_cst, align 4
  store i32 %27, ptr %8, align 4
  br label %28

28:                                               ; preds = %25, %22, %19, %16, %13
  %29 = load i32, ptr %8, align 4, !tbaa !34
  ret i32 %29
}

; Function Attrs: mustprogress uwtable
define void @_ZN7rocksdb9Cleanable15RegisterCleanupEPFvPvS1_ES1_S1_(ptr noundef nonnull align 8 dereferenceable(32) %0, ptr noundef %1, ptr noundef %2, ptr noundef %3) #4 align 2 {
  %5 = alloca ptr, align 8
  %6 = alloca ptr, align 8
  %7 = alloca ptr, align 8
  %8 = alloca ptr, align 8
  %9 = alloca ptr, align 8
  store ptr %0, ptr %5, align 8, !tbaa !4
  store ptr %1, ptr %6, align 8, !tbaa !24
  store ptr %2, ptr %7, align 8, !tbaa !24
  store ptr %3, ptr %8, align 8, !tbaa !24
  %10 = load ptr, ptr %5, align 8
  call void @llvm.lifetime.start.p0(i64 8, ptr %9) #11
  %11 = getelementptr inbounds nuw %"class.rocksdb::Cleanable", ptr %10, i32 0, i32 0
  %12 = getelementptr inbounds nuw %"struct.rocksdb::Cleanable::Cleanup", ptr %11, i32 0, i32 0
  %13 = load ptr, ptr %12, align 8, !tbaa !9
  %14 = icmp eq ptr %13, null
  br i1 %14, label %15, label %17

15:                                               ; preds = %4
  %16 = getelementptr inbounds nuw %"class.rocksdb::Cleanable", ptr %10, i32 0, i32 0
  store ptr %16, ptr %9, align 8, !tbaa !16
  br label %27

17:                                               ; preds = %4
  %18 = call noalias noundef nonnull ptr @_Znwm(i64 noundef 32) #14
  store ptr %18, ptr %9, align 8, !tbaa !16
  %19 = getelementptr inbounds nuw %"class.rocksdb::Cleanable", ptr %10, i32 0, i32 0
  %20 = getelementptr inbounds nuw %"struct.rocksdb::Cleanable::Cleanup", ptr %19, i32 0, i32 3
  %21 = load ptr, ptr %20, align 8, !tbaa !13
  %22 = load ptr, ptr %9, align 8, !tbaa !16
  %23 = getelementptr inbounds nuw %"struct.rocksdb::Cleanable::Cleanup", ptr %22, i32 0, i32 3
  store ptr %21, ptr %23, align 8, !tbaa !20
  %24 = load ptr, ptr %9, align 8, !tbaa !16
  %25 = getelementptr inbounds nuw %"class.rocksdb::Cleanable", ptr %10, i32 0, i32 0
  %26 = getelementptr inbounds nuw %"struct.rocksdb::Cleanable::Cleanup", ptr %25, i32 0, i32 3
  store ptr %24, ptr %26, align 8, !tbaa !13
  br label %27

27:                                               ; preds = %17, %15
  %28 = load ptr, ptr %6, align 8, !tbaa !24
  %29 = load ptr, ptr %9, align 8, !tbaa !16
  %30 = getelementptr inbounds nuw %"struct.rocksdb::Cleanable::Cleanup", ptr %29, i32 0, i32 0
  store ptr %28, ptr %30, align 8, !tbaa !17
  %31 = load ptr, ptr %7, align 8, !tbaa !24
  %32 = load ptr, ptr %9, align 8, !tbaa !16
  %33 = getelementptr inbounds nuw %"struct.rocksdb::Cleanable::Cleanup", ptr %32, i32 0, i32 1
  store ptr %31, ptr %33, align 8, !tbaa !18
  %34 = load ptr, ptr %8, align 8, !tbaa !24
  %35 = load ptr, ptr %9, align 8, !tbaa !16
  %36 = getelementptr inbounds nuw %"struct.rocksdb::Cleanable::Cleanup", ptr %35, i32 0, i32 2
  store ptr %34, ptr %36, align 8, !tbaa !19
  call void @llvm.lifetime.end.p0(i64 8, ptr %9) #11
  ret void
}

; Function Attrs: mustprogress nounwind uwtable
define linkonce_odr void @_ZN7rocksdb18SharedCleanablePtr4Impl3RefEv(ptr noundef nonnull align 8 dereferenceable(36) %0) #0 comdat align 2 {
  %2 = alloca ptr, align 8
  store ptr %0, ptr %2, align 8, !tbaa !31
  %3 = load ptr, ptr %2, align 8
  %4 = getelementptr inbounds nuw %"struct.rocksdb::SharedCleanablePtr::Impl", ptr %3, i32 0, i32 1
  %5 = call noundef i32 @_ZNSt13__atomic_baseIjE9fetch_addEjSt12memory_order(ptr noundef nonnull align 4 dereferenceable(4) %4, i32 noundef 1, i32 noundef 0) #11
  ret void
}

; Function Attrs: mustprogress uwtable
define void @_ZN7rocksdb18SharedCleanablePtr16RegisterCopyWithEPNS_9CleanableE(ptr noundef nonnull align 8 dereferenceable(8) %0, ptr noundef %1) #4 align 2 {
  %3 = alloca ptr, align 8
  %4 = alloca ptr, align 8
  store ptr %0, ptr %3, align 8, !tbaa !26
  store ptr %1, ptr %4, align 8, !tbaa !4
  %5 = load ptr, ptr %3, align 8
  %6 = getelementptr inbounds nuw %"class.rocksdb::SharedCleanablePtr", ptr %5, i32 0, i32 0
  %7 = load ptr, ptr %6, align 8, !tbaa !28
  %8 = icmp ne ptr %7, null
  br i1 %8, label %9, label %15

9:                                                ; preds = %2
  %10 = getelementptr inbounds nuw %"class.rocksdb::SharedCleanablePtr", ptr %5, i32 0, i32 0
  %11 = load ptr, ptr %10, align 8, !tbaa !28
  call void @_ZN7rocksdb18SharedCleanablePtr4Impl3RefEv(ptr noundef nonnull align 8 dereferenceable(36) %11)
  %12 = load ptr, ptr %4, align 8, !tbaa !4
  %13 = getelementptr inbounds nuw %"class.rocksdb::SharedCleanablePtr", ptr %5, i32 0, i32 0
  %14 = load ptr, ptr %13, align 8, !tbaa !28
  call void @_ZN7rocksdb9Cleanable15RegisterCleanupEPFvPvS1_ES1_S1_(ptr noundef nonnull align 8 dereferenceable(32) %12, ptr noundef @_ZN7rocksdb18SharedCleanablePtr4Impl12UnrefWrapperEPvS2_, ptr noundef %14, ptr noundef null)
  br label %15

15:                                               ; preds = %9, %2
  ret void
}