; Function Attrs: mustprogress uwtable
define void @_ZN7rocksdb18SharedCleanablePtr16RegisterCopyWithEPNS_9CleanableE(ptr noundef nonnull readonly align 8 captures(none) dereferenceable(8) %0, ptr noundef captures(none) %1) local_unnamed_addr #5 align 2 {
  %3 = load ptr, ptr %0, align 8, !tbaa !25
  %.not = icmp eq ptr %3, null
  br i1 %.not, label %17, label %4

4:                                                ; preds = %2
  %5 = getelementptr inbounds nuw i8, ptr %3, i64 32
  %6 = atomicrmw add ptr %5, i32 1 monotonic, align 4
  %7 = load ptr, ptr %0, align 8, !tbaa !25
  %8 = load ptr, ptr %1, align 8, !tbaa !4
  %9 = icmp eq ptr %8, null
  br i1 %9, label %_ZN7rocksdb9Cleanable15RegisterCleanupEPFvPvS1_ES1_S1_.exit, label %10

10:                                               ; preds = %4
  %11 = tail call noalias noundef nonnull dereferenceable(32) ptr @_Znwm(i64 noundef 32) #13
  %12 = getelementptr inbounds nuw i8, ptr %1, i64 24
  %13 = load ptr, ptr %12, align 8, !tbaa !11
  %14 = getelementptr inbounds nuw i8, ptr %11, i64 24
  store ptr %13, ptr %14, align 8, !tbaa !17
  store ptr %11, ptr %12, align 8, !tbaa !11
  br label %_ZN7rocksdb9Cleanable15RegisterCleanupEPFvPvS1_ES1_S1_.exit

_ZN7rocksdb9Cleanable15RegisterCleanupEPFvPvS1_ES1_S1_.exit: ; preds = %4, %10
  %.0.i = phi ptr [ %11, %10 ], [ %1, %4 ]
  store ptr @_ZN7rocksdb18SharedCleanablePtr4Impl12UnrefWrapperEPvS2_, ptr %.0.i, align 8, !tbaa !18
  %15 = getelementptr inbounds nuw i8, ptr %.0.i, i64 8
  store ptr %7, ptr %15, align 8, !tbaa !15
  %16 = getelementptr inbounds nuw i8, ptr %.0.i, i64 16
  store ptr null, ptr %16, align 8, !tbaa !16
  br label %17

17:                                               ; preds = %_ZN7rocksdb9Cleanable15RegisterCleanupEPFvPvS1_ES1_S1_.exit, %2
  ret void
}